target datalayout = "e-m:e-p270:32:32-p271:32:32-p272:64:64-i64:64-i128:128-f80:128-n8:16:32:64-S128"
target triple = "x86_64-pc-linux-gnu"

%struct.Nwk_Obj_t_ = type { ptr, ptr, ptr, %union.anon, i32, i32, i32, i32, float, float, float, i32, i32, i32, ptr }
%union.anon = type { ptr }

; Function Attrs: nounwind uwtable
define internal i32 @Nwk_ObjIsCi(ptr noundef %0) #0 {
  %2 = alloca ptr, align 8
  store ptr %0, ptr %2, align 8
  %3 = load ptr, ptr %2, align 8
  %4 = getelementptr inbounds %struct.Nwk_Obj_t_, ptr %3, i32 0, i32 4
  %5 = load i32, ptr %4, align 8
  %6 = and i32 %5, 7
  %7 = icmp eq i32 %6, 1
  %8 = zext i1 %7 to i32
  ret i32 %8
}

; Function Attrs: nounwind uwtable
define i32 @Nwk_ObjRef_rec(ptr noundef %0) #0 {
  %2 = alloca i32, align 4
  %3 = alloca ptr, align 8
  %4 = alloca ptr, align 8
  %5 = alloca i32, align 4
  %6 = alloca i32, align 4
  store ptr %0, ptr %3, align 8
  store i32 1, ptr %6, align 4
  %7 = load ptr, ptr %3, align 8
  %8 = call i32 @Nwk_ObjIsCi(ptr noundef %7)
  %9 = icmp ne i32 %8, 0
  br i1 %9, label %10, label %11

10:                                               ; preds = %1
  store i32 0, ptr %2, align 4
  br label %46

11:                                               ; preds = %1
  store i32 0, ptr %5, align 4
  br label %12

12:                                               ; preds = %41, %11
  %13 = load i32, ptr %5, align 4
  %14 = load ptr, ptr %3, align 8
  %15 = getelementptr inbounds %struct.Nwk_Obj_t_, ptr %14, i32 0, i32 11
  %16 = load i32, ptr %15, align 4
  %17 = icmp slt i32 %13, %16
  br i1 %17, label %18, label %27

18:                                               ; preds = %12
  %19 = load ptr, ptr %3, align 8
  %20 = getelementptr inbounds %struct.Nwk_Obj_t_, ptr %19, i32 0, i32 14
  %21 = load ptr, ptr %20, align 8
  %22 = load i32, ptr %5, align 4
  %23 = sext i32 %22 to i64
  %24 = getelementptr inbounds ptr, ptr %21, i64 %23
  %25 = load ptr, ptr %24, align 8
  store ptr %25, ptr %4, align 8
  %26 = icmp ne ptr %25, null
  br label %27

27:                                               ; preds = %18, %12
  %28 = phi i1 [ false, %12 ], [ %26, %18 ]
  br i1 %28, label %29, label %44

29:                                               ; preds = %27
  %30 = load ptr, ptr %4, align 8
  %31 = getelementptr inbounds %struct.Nwk_Obj_t_, ptr %30, i32 0, i32 12
  %32 = load i32, ptr %31, align 8
  %33 = add nsw i32 %32, 1
  store i32 %33, ptr %31, align 8
  %34 = icmp eq i32 %32, 0
  br i1 %34, label %35, label %40

35:                                               ; preds = %29
  %36 = load ptr, ptr %4, align 8
  %37 = call i32 @Nwk_ObjRef_rec(ptr noundef %36)
  %38 = load i32, ptr %6, align 4
  %39 = add nsw i32 %38, %37
  store i32 %39, ptr %6, align 4
  br label %40

40:                                               ; preds = %35, %29
  br label %41

41:                                               ; preds = %40
  %42 = load i32, ptr %5, align 4
  %43 = add nsw i32 %42, 1
  store i32 %43, ptr %5, align 4
  br label %12, !llvm.loop !32

44:                                               ; preds = %27
  %45 = load i32, ptr %6, align 4
  store i32 %45, ptr %2, align 4
  br label %46

46:                                               ; preds = %44, %10
  %47 = load i32, ptr %2, align 4
  ret i32 %47
}