; Function Attrs: nofree nosync nounwind memory(readwrite, inaccessiblemem: none) uwtable
define i32 @Nwk_ObjRef_rec(ptr noundef readonly captures(none) %0) local_unnamed_addr #3 {
  %2 = getelementptr i8, ptr %0, i64 32
  %.val = load i32, ptr %2, align 8
  %3 = and i32 %.val, 7
  %.not = icmp eq i32 %3, 1
  br i1 %.not, label %.critedge, label %.preheader

.preheader:                                       ; preds = %1
  %4 = getelementptr inbounds nuw i8, ptr %0, i64 72
  %5 = getelementptr inbounds nuw i8, ptr %0, i64 60
  %6 = load i32, ptr %5, align 4
  %7 = icmp sgt i32 %6, 0
  br i1 %7, label %.lr.ph, label %.critedge

.lr.ph:                                           ; preds = %.preheader, %19
  %indvars.iv = phi i64 [ %indvars.iv.next, %19 ], [ 0, %.preheader ]
  %.015 = phi i32 [ %.1, %19 ], [ 1, %.preheader ]
  %8 = load ptr, ptr %4, align 8
  %9 = getelementptr inbounds nuw ptr, ptr %8, i64 %indvars.iv
  %10 = load ptr, ptr %9, align 8
  %.not13 = icmp eq ptr %10, null
  br i1 %.not13, label %.critedge, label %11

11:                                               ; preds = %.lr.ph
  %12 = getelementptr inbounds nuw i8, ptr %10, i64 64
  %13 = load i32, ptr %12, align 8
  %14 = add nsw i32 %13, 1
  store i32 %14, ptr %12, align 8
  %15 = icmp eq i32 %13, 0
  br i1 %15, label %16, label %19

16:                                               ; preds = %11
  %17 = tail call i32 @Nwk_ObjRef_rec(ptr noundef nonnull %10)
  %18 = add nsw i32 %17, %.015
  br label %19

19:                                               ; preds = %11, %16
  %.1 = phi i32 [ %18, %16 ], [ %.015, %11 ]
  %indvars.iv.next = add nuw nsw i64 %indvars.iv, 1
  %20 = load i32, ptr %5, align 4
  %21 = sext i32 %20 to i64
  %22 = icmp slt i64 %indvars.iv.next, %21
  br i1 %22, label %.lr.ph, label %.critedge, !llvm.loop !32

.critedge:                                        ; preds = %19, %.lr.ph, %.preheader, %1
  %.011 = phi i32 [ 0, %1 ], [ 1, %.preheader ], [ %.1, %19 ], [ %.015, %.lr.ph ]
  ret i32 %.011
}